; Function Attrs: mustprogress uwtable
define void @_ZNK6casadi6MXNode8get_mminEv(ptr dead_on_unwind noalias writable sret(%"class.casadi::MX") align 8 %0, ptr noundef nonnull align 8 dereferenceable(64) %1) unnamed_addr #3 align 2 personality ptr @__gxx_personality_v0 {
  %3 = alloca %"class.casadi::MX", align 8
  %4 = getelementptr inbounds i8, ptr %1, i64 56
  %5 = tail call noundef zeroext i1 @_ZNK6casadi8Sparsity8is_emptyEb(ptr noundef nonnull align 8 dereferenceable(8) %4, i1 noundef zeroext false)
  br i1 %5, label %6, label %7

6:                                                ; preds = %2
  tail call void @_ZN6casadi2MXC1Ev(ptr noundef nonnull align 8 dereferenceable(8) %0)
  br label %17

7:                                                ; preds = %2
  %8 = tail call noalias noundef nonnull dereferenceable(64) ptr @_Znwm(i64 noundef 64) #35
  invoke void @_ZNK6casadi20SharedObjectInternal16shared_from_thisINS_2MXEEEKT_v(ptr dead_on_unwind nonnull writable sret(%"class.casadi::MX") align 8 %3, ptr noundef nonnull align 8 dereferenceable(24) %1)
          to label %9 unwind label %.thread

9:                                                ; preds = %7
  invoke void @_ZN6casadi4MMinC1ERKNS_2MXE(ptr noundef nonnull align 8 dereferenceable(64) %8, ptr noundef nonnull align 8 dereferenceable(8) %3)
          to label %11 unwind label %.thread10

.thread10:                                        ; preds = %9
  %10 = landingpad { ptr, i32 }
          cleanup
  call void @_ZN6casadi2MXD1Ev(ptr noundef nonnull align 8 dereferenceable(8) %3) #31
  br label %16

11:                                               ; preds = %9
  invoke void @_ZN6casadi2MX6createEPNS_6MXNodeE(ptr dead_on_unwind writable sret(%"class.casadi::MX") align 8 %0, ptr noundef nonnull %8)
          to label %12 unwind label %14

12:                                               ; preds = %11
  call void @_ZN6casadi2MXD1Ev(ptr noundef nonnull align 8 dereferenceable(8) %3) #31
  br label %17

.thread:                                          ; preds = %7
  %13 = landingpad { ptr, i32 }
          cleanup
  br label %16

14:                                               ; preds = %11
  %15 = landingpad { ptr, i32 }
          cleanup
  call void @_ZN6casadi2MXD1Ev(ptr noundef nonnull align 8 dereferenceable(8) %3) #31
  br label %18

16:                                               ; preds = %.thread10, %.thread
  %.pn9 = phi { ptr, i32 } [ %13, %.thread ], [ %10, %.thread10 ]
  call void @_ZdlPv(ptr noundef nonnull %8) #32
  br label %18

17:                                               ; preds = %12, %6
  ret void

18:                                               ; preds = %14, %16
  %.pn8 = phi { ptr, i32 } [ %15, %14 ], [ %.pn9, %16 ]
  resume { ptr, i32 } %.pn8
}